target datalayout = "e-m:e-p270:32:32-p271:32:32-p272:64:64-i64:64-i128:128-f80:128-n8:16:32:64-S128"
target triple = "x86_64-pc-linux-gnu"

%struct.expert_field = type { i32, i32 }
%struct._e_guid_t = type { i32, i16, i16, [8 x i8] }
%struct._dcerpc_auth_subdissector_fns = type { ptr, ptr, ptr, ptr, ptr, ptr, ptr }
%struct._dcerpc_info = type { ptr, i32, i64, i8, i8, i8, i32, i32, i32, i32, i32, i32, i32, i32, ptr, ptr, ptr, ptr, %struct.anon }
%struct.anon = type { i8, ptr, ptr, ptr, i8 }
%struct._dcerpc_call_value = type { %struct._e_guid_t, i16, %struct._e_guid_t, i16, i32, %struct.nstime_t, i32, i32, ptr, ptr, ptr, i32 }
%struct.nstime_t = type { i64, i32 }
%struct._dcerpc_auth_info = type { i8, i8, i8, i32, i8, i32, ptr, ptr, ptr, ptr, ptr }
%struct._e_dce_cn_common_hdr_t = type { i8, i8, i8, i8, [4 x i8], i16, i16, i32 }

@ei_dcerpc_verifier_unavailable = internal global %struct.expert_field zeroinitializer, align 4
@ei_dcerpc_invalid_pdu_authentication_attempt = internal global %struct.expert_field zeroinitializer, align 4
@.str.446 = private unnamed_addr constant [13 x i8] c"Unknown (%u)\00", align 1
@.str.666 = private unnamed_addr constant [62 x i8] c"Don't know how to dissect authentication data for %s pdu type\00", align 1
@.str.667 = private unnamed_addr constant [24 x i8] c"%s Verifier unavailable\00", align 1

; Function Attrs: null_pointer_is_valid sspstrong uwtable
define internal void @dissect_auth_verf(ptr noundef %0, ptr noundef %1, ptr noundef %2) #0 {
  %4 = alloca ptr, align 8
  %5 = alloca ptr, align 8
  %6 = alloca ptr, align 8
  %7 = alloca ptr, align 8
  %8 = alloca %struct._dcerpc_info, align 8
  %9 = alloca %struct._dcerpc_call_value, align 8
  %10 = alloca i32, align 4
  store ptr %0, ptr %4, align 8
  store ptr %1, ptr %5, align 8
  store ptr %2, ptr %6, align 8
  call void @llvm.lifetime.start.p0(i64 8, ptr %7) #19
  store ptr null, ptr %7, align 8
  call void @llvm.lifetime.start.p0(i64 136, ptr %8) #19
  call void @llvm.lifetime.start.p0(i64 104, ptr %9) #19
  %11 = getelementptr inbounds nuw %struct._dcerpc_info, ptr %8, i32 0, i32 4
  store i8 0, ptr %11, align 1
  %12 = getelementptr inbounds nuw %struct._dcerpc_info, ptr %8, i32 0, i32 5
  store i8 1, ptr %12, align 2
  %13 = getelementptr inbounds nuw %struct._dcerpc_call_value, ptr %9, i32 0, i32 11
  store i32 0, ptr %13, align 8
  %14 = getelementptr inbounds nuw %struct._dcerpc_info, ptr %8, i32 0, i32 14
  store ptr %9, ptr %14, align 8
  %15 = load ptr, ptr %6, align 8
  %16 = icmp eq ptr %15, null
  br i1 %16, label %17, label %18

17:                                               ; preds = %3
  store i32 1, ptr %10, align 4
  br label %114

18:                                               ; preds = %3
  %19 = load ptr, ptr %6, align 8
  %20 = getelementptr inbounds nuw %struct._dcerpc_auth_info, ptr %19, i32 0, i32 6
  %21 = load ptr, ptr %20, align 8
  %22 = icmp eq ptr %21, null
  br i1 %22, label %23, label %24

23:                                               ; preds = %18
  store i32 1, ptr %10, align 4
  br label %114

24:                                               ; preds = %18
  %25 = load ptr, ptr %5, align 8
  %26 = getelementptr inbounds nuw %struct._e_dce_cn_common_hdr_t, ptr %25, i32 0, i32 2
  %27 = load i8, ptr %26, align 2
  %28 = getelementptr inbounds nuw %struct._dcerpc_info, ptr %8, i32 0, i32 3
  store i8 %27, ptr %28, align 8
  %29 = load ptr, ptr %6, align 8
  %30 = getelementptr inbounds nuw %struct._dcerpc_info, ptr %8, i32 0, i32 16
  store ptr %29, ptr %30, align 8
  %31 = load ptr, ptr %5, align 8
  %32 = getelementptr inbounds nuw %struct._e_dce_cn_common_hdr_t, ptr %31, i32 0, i32 2
  %33 = load i8, ptr %32, align 2
  %34 = zext i8 %33 to i32
  switch i32 %34, label %65 [
    i32 11, label %35
    i32 14, label %35
    i32 12, label %41
    i32 15, label %41
    i32 16, label %47
    i32 0, label %53
    i32 18, label %53
    i32 19, label %53
    i32 2, label %59
    i32 3, label %59
  ]

35:                                               ; preds = %24, %24
  %36 = load ptr, ptr %6, align 8
  %37 = getelementptr inbounds nuw %struct._dcerpc_auth_info, ptr %36, i32 0, i32 6
  %38 = load ptr, ptr %37, align 8
  %39 = getelementptr inbounds nuw %struct._dcerpc_auth_subdissector_fns, ptr %38, i32 0, i32 0
  %40 = load ptr, ptr %39, align 8
  store ptr %40, ptr %7, align 8
  br label %79

41:                                               ; preds = %24, %24
  %42 = load ptr, ptr %6, align 8
  %43 = getelementptr inbounds nuw %struct._dcerpc_auth_info, ptr %42, i32 0, i32 6
  %44 = load ptr, ptr %43, align 8
  %45 = getelementptr inbounds nuw %struct._dcerpc_auth_subdissector_fns, ptr %44, i32 0, i32 1
  %46 = load ptr, ptr %45, align 8
  store ptr %46, ptr %7, align 8
  br label %79

47:                                               ; preds = %24
  %48 = load ptr, ptr %6, align 8
  %49 = getelementptr inbounds nuw %struct._dcerpc_auth_info, ptr %48, i32 0, i32 6
  %50 = load ptr, ptr %49, align 8
  %51 = getelementptr inbounds nuw %struct._dcerpc_auth_subdissector_fns, ptr %50, i32 0, i32 2
  %52 = load ptr, ptr %51, align 8
  store ptr %52, ptr %7, align 8
  br label %79

53:                                               ; preds = %24, %24, %24
  %54 = load ptr, ptr %6, align 8
  %55 = getelementptr inbounds nuw %struct._dcerpc_auth_info, ptr %54, i32 0, i32 6
  %56 = load ptr, ptr %55, align 8
  %57 = getelementptr inbounds nuw %struct._dcerpc_auth_subdissector_fns, ptr %56, i32 0, i32 3
  %58 = load ptr, ptr %57, align 8
  store ptr %58, ptr %7, align 8
  br label %79

59:                                               ; preds = %24, %24
  %60 = load ptr, ptr %6, align 8
  %61 = getelementptr inbounds nuw %struct._dcerpc_auth_info, ptr %60, i32 0, i32 6
  %62 = load ptr, ptr %61, align 8
  %63 = getelementptr inbounds nuw %struct._dcerpc_auth_subdissector_fns, ptr %62, i32 0, i32 4
  %64 = load ptr, ptr %63, align 8
  store ptr %64, ptr %7, align 8
  br label %79

65:                                               ; preds = %24
  %66 = load ptr, ptr %6, align 8
  %67 = getelementptr inbounds nuw %struct._dcerpc_auth_info, ptr %66, i32 0, i32 10
  %68 = load ptr, ptr %67, align 8
  %69 = load ptr, ptr %4, align 8
  %70 = load ptr, ptr %6, align 8
  %71 = getelementptr inbounds nuw %struct._dcerpc_auth_info, ptr %70, i32 0, i32 8
  %72 = load ptr, ptr %71, align 8
  %73 = load ptr, ptr %5, align 8
  %74 = getelementptr inbounds nuw %struct._e_dce_cn_common_hdr_t, ptr %73, i32 0, i32 2
  %75 = load i8, ptr %74, align 2
  %76 = zext i8 %75 to i32
  %77 = call ptr @val_to_str(i32 noundef %76, ptr noundef @pckt_vals, ptr noundef @.str.446)
  %78 = call ptr (ptr, ptr, ptr, ptr, i32, i32, ptr, ...) @proto_tree_add_expert_format(ptr noundef %68, ptr noundef %69, ptr noundef @ei_dcerpc_invalid_pdu_authentication_attempt, ptr noundef %72, i32 noundef 0, i32 noundef 0, ptr noundef @.str.666, ptr noundef %77)
  store i32 1, ptr %10, align 4
  br label %114

79:                                               ; preds = %59, %53, %47, %41, %35
  %80 = load ptr, ptr %7, align 8
  %81 = icmp ne ptr %80, null
  br i1 %81, label %82, label %95

82:                                               ; preds = %79
  %83 = load ptr, ptr %7, align 8
  %84 = load ptr, ptr %6, align 8
  %85 = getelementptr inbounds nuw %struct._dcerpc_auth_info, ptr %84, i32 0, i32 8
  %86 = load ptr, ptr %85, align 8
  %87 = load ptr, ptr %4, align 8
  %88 = load ptr, ptr %6, align 8
  %89 = getelementptr inbounds nuw %struct._dcerpc_auth_info, ptr %88, i32 0, i32 10
  %90 = load ptr, ptr %89, align 8
  %91 = load ptr, ptr %5, align 8
  %92 = getelementptr inbounds nuw %struct._e_dce_cn_common_hdr_t, ptr %91, i32 0, i32 4
  %93 = getelementptr inbounds [4 x i8], ptr %92, i64 0, i64 0
  %94 = call i32 %83(ptr noundef %86, i32 noundef 0, ptr noundef %87, ptr noundef %90, ptr noundef %8, ptr noundef %93)
  br label %113

95:                                               ; preds = %79
  %96 = load ptr, ptr %6, align 8
  %97 = getelementptr inbounds nuw %struct._dcerpc_auth_info, ptr %96, i32 0, i32 10
  %98 = load ptr, ptr %97, align 8
  %99 = load ptr, ptr %4, align 8
  %100 = load ptr, ptr %6, align 8
  %101 = getelementptr inbounds nuw %struct._dcerpc_auth_info, ptr %100, i32 0, i32 8
  %102 = load ptr, ptr %101, align 8
  %103 = load ptr, ptr %5, align 8
  %104 = getelementptr inbounds nuw %struct._e_dce_cn_common_hdr_t, ptr %103, i32 0, i32 6
  %105 = load i16, ptr %104, align 2
  %106 = zext i16 %105 to i32
  %107 = load ptr, ptr %6, align 8
  %108 = getelementptr inbounds nuw %struct._dcerpc_auth_info, ptr %107, i32 0, i32 1
  %109 = load i8, ptr %108, align 1
  %110 = zext i8 %109 to i32
  %111 = call ptr @val_to_str(i32 noundef %110, ptr noundef @authn_protocol_vals, ptr noundef @.str.446)
  %112 = call ptr (ptr, ptr, ptr, ptr, i32, i32, ptr, ...) @proto_tree_add_expert_format(ptr noundef %98, ptr noundef %99, ptr noundef @ei_dcerpc_verifier_unavailable, ptr noundef %102, i32 noundef 0, i32 noundef %106, ptr noundef @.str.667, ptr noundef %111)
  br label %113

113:                                              ; preds = %95, %82
  store i32 0, ptr %10, align 4
  br label %114

114:                                              ; preds = %113, %65, %23, %17
  call void @llvm.lifetime.end.p0(i64 104, ptr %9) #19
  call void @llvm.lifetime.end.p0(i64 136, ptr %8) #19
  call void @llvm.lifetime.end.p0(i64 8, ptr %7) #19
  %115 = load i32, ptr %10, align 4
  switch i32 %115, label %117 [
    i32 0, label %116
    i32 1, label %116
  ]

116:                                              ; preds = %114, %114
  ret void

117:                                              ; preds = %114
  unreachable
}