; Function Attrs: null_pointer_is_valid sspstrong uwtable
define internal fastcc void @dissect_auth_verf(ptr noundef %0, ptr noundef %1, ptr noundef %2) unnamed_addr #0 {
  %4 = alloca %struct._dcerpc_info, align 8
  %5 = alloca %struct._dcerpc_call_value, align 8
  call void @llvm.lifetime.start.p0(i64 136, ptr nonnull %4) #19
  call void @llvm.lifetime.start.p0(i64 104, ptr nonnull %5) #19
  %6 = getelementptr inbounds nuw i8, ptr %4, i64 25
  store i8 0, ptr %6, align 1
  %7 = getelementptr inbounds nuw i8, ptr %4, i64 26
  store i8 1, ptr %7, align 2
  %8 = getelementptr inbounds nuw i8, ptr %5, i64 96
  store i32 0, ptr %8, align 8
  %9 = getelementptr inbounds nuw i8, ptr %4, i64 64
  store ptr %5, ptr %9, align 8
  %10 = icmp eq ptr %2, null
  br i1 %10, label %57, label %11

11:                                               ; preds = %3
  %12 = getelementptr inbounds nuw i8, ptr %2, i64 16
  %13 = load ptr, ptr %12, align 8
  %14 = icmp eq ptr %13, null
  br i1 %14, label %57, label %15

15:                                               ; preds = %11
  %16 = getelementptr inbounds nuw i8, ptr %1, i64 2
  %17 = load i8, ptr %16, align 2
  %18 = getelementptr inbounds nuw i8, ptr %4, i64 24
  store i8 %17, ptr %18, align 8
  %19 = getelementptr inbounds nuw i8, ptr %4, i64 80
  store ptr %2, ptr %19, align 8
  switch i8 %17, label %28 [
    i8 11, label %36
    i8 14, label %36
    i8 12, label %20
    i8 15, label %20
    i8 16, label %22
    i8 0, label %24
    i8 18, label %24
    i8 19, label %24
    i8 2, label %26
    i8 3, label %26
  ]

20:                                               ; preds = %15, %15
  %21 = getelementptr inbounds nuw i8, ptr %13, i64 8
  br label %36

22:                                               ; preds = %15
  %23 = getelementptr inbounds nuw i8, ptr %13, i64 16
  br label %36

24:                                               ; preds = %15, %15, %15
  %25 = getelementptr inbounds nuw i8, ptr %13, i64 24
  br label %36

26:                                               ; preds = %15, %15
  %27 = getelementptr inbounds nuw i8, ptr %13, i64 32
  br label %36

28:                                               ; preds = %15
  %29 = zext i8 %17 to i32
  %30 = getelementptr inbounds nuw i8, ptr %2, i64 48
  %31 = load ptr, ptr %30, align 8
  %32 = getelementptr inbounds nuw i8, ptr %2, i64 32
  %33 = load ptr, ptr %32, align 8
  %34 = call ptr @val_to_str(i32 noundef %29, ptr noundef nonnull @pckt_vals, ptr noundef nonnull @.str.446)
  %35 = call ptr (ptr, ptr, ptr, ptr, i32, i32, ptr, ...) @proto_tree_add_expert_format(ptr noundef %31, ptr noundef %0, ptr noundef nonnull @ei_dcerpc_invalid_pdu_authentication_attempt, ptr noundef %33, i32 noundef 0, i32 noundef 0, ptr noundef nonnull @.str.666, ptr noundef %34)
  br label %57

36:                                               ; preds = %15, %15, %26, %24, %22, %20
  %.0.in = phi ptr [ %27, %26 ], [ %25, %24 ], [ %23, %22 ], [ %21, %20 ], [ %13, %15 ], [ %13, %15 ]
  %.0 = load ptr, ptr %.0.in, align 8
  %.not = icmp eq ptr %.0, null
  br i1 %.not, label %44, label %37

37:                                               ; preds = %36
  %38 = getelementptr inbounds nuw i8, ptr %2, i64 32
  %39 = load ptr, ptr %38, align 8
  %40 = getelementptr inbounds nuw i8, ptr %2, i64 48
  %41 = load ptr, ptr %40, align 8
  %42 = getelementptr inbounds nuw i8, ptr %1, i64 4
  %43 = call i32 %.0(ptr noundef %39, i32 noundef 0, ptr noundef %0, ptr noundef %41, ptr noundef nonnull %4, ptr noundef nonnull %42)
  br label %57

44:                                               ; preds = %36
  %45 = getelementptr inbounds nuw i8, ptr %2, i64 48
  %46 = load ptr, ptr %45, align 8
  %47 = getelementptr inbounds nuw i8, ptr %2, i64 32
  %48 = load ptr, ptr %47, align 8
  %49 = getelementptr inbounds nuw i8, ptr %1, i64 10
  %50 = load i16, ptr %49, align 2
  %51 = zext i16 %50 to i32
  %52 = getelementptr inbounds nuw i8, ptr %2, i64 1
  %53 = load i8, ptr %52, align 1
  %54 = zext i8 %53 to i32
  %55 = call ptr @val_to_str(i32 noundef %54, ptr noundef nonnull @authn_protocol_vals, ptr noundef nonnull @.str.446)
  %56 = call ptr (ptr, ptr, ptr, ptr, i32, i32, ptr, ...) @proto_tree_add_expert_format(ptr noundef %46, ptr noundef %0, ptr noundef nonnull @ei_dcerpc_verifier_unavailable, ptr noundef %48, i32 noundef 0, i32 noundef %51, ptr noundef nonnull @.str.667, ptr noundef %55)
  br label %57

57:                                               ; preds = %37, %44, %11, %3, %28
  call void @llvm.lifetime.end.p0(i64 104, ptr nonnull %5) #19
  call void @llvm.lifetime.end.p0(i64 136, ptr nonnull %4) #19
  ret void
}